target datalayout = "e-m:e-p270:32:32-p271:32:32-p272:64:64-i64:64-i128:128-f80:128-n8:16:32:64-S128"
target triple = "x86_64-pc-linux-gnu"

%struct.Vec_Wrd_t_ = type { i32, i32, ptr }

; Function Attrs: nounwind uwtable
define internal i32 @Abc_TtCountOnes(i64 noundef %0) #0 {
  %2 = alloca i64, align 8
  store i64 %0, ptr %2, align 8
  %3 = load i64, ptr %2, align 8
  %4 = load i64, ptr %2, align 8
  %5 = lshr i64 %4, 1
  %6 = and i64 %5, 6148914691236517205
  %7 = sub i64 %3, %6
  store i64 %7, ptr %2, align 8
  %8 = load i64, ptr %2, align 8
  %9 = and i64 %8, 3689348814741910323
  %10 = load i64, ptr %2, align 8
  %11 = lshr i64 %10, 2
  %12 = and i64 %11, 3689348814741910323
  %13 = add i64 %9, %12
  store i64 %13, ptr %2, align 8
  %14 = load i64, ptr %2, align 8
  %15 = load i64, ptr %2, align 8
  %16 = lshr i64 %15, 4
  %17 = add i64 %14, %16
  %18 = and i64 %17, 1085102592571150095
  store i64 %18, ptr %2, align 8
  %19 = load i64, ptr %2, align 8
  %20 = load i64, ptr %2, align 8
  %21 = lshr i64 %20, 8
  %22 = add i64 %19, %21
  store i64 %22, ptr %2, align 8
  %23 = load i64, ptr %2, align 8
  %24 = load i64, ptr %2, align 8
  %25 = lshr i64 %24, 16
  %26 = add i64 %23, %25
  store i64 %26, ptr %2, align 8
  %27 = load i64, ptr %2, align 8
  %28 = load i64, ptr %2, align 8
  %29 = lshr i64 %28, 32
  %30 = add i64 %27, %29
  store i64 %30, ptr %2, align 8
  %31 = load i64, ptr %2, align 8
  %32 = and i64 %31, 255
  %33 = trunc i64 %32 to i32
  ret i32 %33
}

; Function Attrs: nounwind uwtable
define internal i32 @Abc_TtCountOnes2(i64 noundef %0) #0 {
  %2 = alloca i64, align 8
  store i64 %0, ptr %2, align 8
  %3 = load i64, ptr %2, align 8
  %4 = icmp ne i64 %3, 0
  br i1 %4, label %5, label %8

5:                                                ; preds = %1
  %6 = load i64, ptr %2, align 8
  %7 = call i32 @Abc_TtCountOnes(i64 noundef %6)
  br label %9

8:                                                ; preds = %1
  br label %9

9:                                                ; preds = %8, %5
  %10 = phi i32 [ %7, %5 ], [ 0, %8 ]
  ret i32 %10
}

; Function Attrs: nounwind uwtable
define internal i32 @Abc_TtCountOnesVecMask(ptr noundef %0, ptr noundef %1, i32 noundef %2, i32 noundef %3) #0 {
  %5 = alloca ptr, align 8
  %6 = alloca ptr, align 8
  %7 = alloca i32, align 4
  %8 = alloca i32, align 4
  %9 = alloca i32, align 4
  %10 = alloca i32, align 4
  store ptr %0, ptr %5, align 8
  store ptr %1, ptr %6, align 8
  store i32 %2, ptr %7, align 4
  store i32 %3, ptr %8, align 4
  store i32 0, ptr %10, align 4
  %11 = load i32, ptr %8, align 4
  %12 = icmp ne i32 %11, 0
  br i1 %12, label %13, label %38

13:                                               ; preds = %4
  store i32 0, ptr %9, align 4
  br label %14

14:                                               ; preds = %34, %13
  %15 = load i32, ptr %9, align 4
  %16 = load i32, ptr %7, align 4
  %17 = icmp slt i32 %15, %16
  br i1 %17, label %18, label %37

18:                                               ; preds = %14
  %19 = load ptr, ptr %6, align 8
  %20 = load i32, ptr %9, align 4
  %21 = sext i32 %20 to i64
  %22 = getelementptr inbounds i64, ptr %19, i64 %21
  %23 = load i64, ptr %22, align 8
  %24 = load ptr, ptr %5, align 8
  %25 = load i32, ptr %9, align 4
  %26 = sext i32 %25 to i64
  %27 = getelementptr inbounds i64, ptr %24, i64 %26
  %28 = load i64, ptr %27, align 8
  %29 = xor i64 %28, -1
  %30 = and i64 %23, %29
  %31 = call i32 @Abc_TtCountOnes2(i64 noundef %30)
  %32 = load i32, ptr %10, align 4
  %33 = add nsw i32 %32, %31
  store i32 %33, ptr %10, align 4
  br label %34

34:                                               ; preds = %18
  %35 = load i32, ptr %9, align 4
  %36 = add nsw i32 %35, 1
  store i32 %36, ptr %9, align 4
  br label %14, !llvm.loop !96

37:                                               ; preds = %14
  br label %62

38:                                               ; preds = %4
  store i32 0, ptr %9, align 4
  br label %39

39:                                               ; preds = %58, %38
  %40 = load i32, ptr %9, align 4
  %41 = load i32, ptr %7, align 4
  %42 = icmp slt i32 %40, %41
  br i1 %42, label %43, label %61

43:                                               ; preds = %39
  %44 = load ptr, ptr %6, align 8
  %45 = load i32, ptr %9, align 4
  %46 = sext i32 %45 to i64
  %47 = getelementptr inbounds i64, ptr %44, i64 %46
  %48 = load i64, ptr %47, align 8
  %49 = load ptr, ptr %5, align 8
  %50 = load i32, ptr %9, align 4
  %51 = sext i32 %50 to i64
  %52 = getelementptr inbounds i64, ptr %49, i64 %51
  %53 = load i64, ptr %52, align 8
  %54 = and i64 %48, %53
  %55 = call i32 @Abc_TtCountOnes2(i64 noundef %54)
  %56 = load i32, ptr %10, align 4
  %57 = add nsw i32 %56, %55
  store i32 %57, ptr %10, align 4
  br label %58

58:                                               ; preds = %43
  %59 = load i32, ptr %9, align 4
  %60 = add nsw i32 %59, 1
  store i32 %60, ptr %9, align 4
  br label %39, !llvm.loop !97

61:                                               ; preds = %39
  br label %62

62:                                               ; preds = %61, %37
  %63 = load i32, ptr %10, align 4
  ret i32 %63
}

; Function Attrs: nounwind uwtable
define internal ptr @Vec_WrdEntryP(ptr noundef %0, i32 noundef %1) #0 {
  %3 = alloca ptr, align 8
  %4 = alloca i32, align 4
  store ptr %0, ptr %3, align 8
  store i32 %1, ptr %4, align 4
  %5 = load ptr, ptr %3, align 8
  %6 = getelementptr inbounds %struct.Vec_Wrd_t_, ptr %5, i32 0, i32 2
  %7 = load ptr, ptr %6, align 8
  %8 = load i32, ptr %4, align 4
  %9 = sext i32 %8 to i64
  %10 = getelementptr inbounds i64, ptr %7, i64 %9
  ret ptr %10
}

; Function Attrs: nounwind uwtable
define internal i32 @Abc_Bit6WordNum(i32 noundef %0) #0 {
  %2 = alloca i32, align 4
  store i32 %0, ptr %2, align 4
  %3 = load i32, ptr %2, align 4
  %4 = ashr i32 %3, 6
  %5 = load i32, ptr %2, align 4
  %6 = and i32 %5, 63
  %7 = icmp sgt i32 %6, 0
  %8 = zext i1 %7 to i32
  %9 = add nsw i32 %4, %8
  ret i32 %9
}

; Function Attrs: nounwind uwtable
define internal i32 @Vec_WrdSize(ptr noundef %0) #0 {
  %2 = alloca ptr, align 8
  store ptr %0, ptr %2, align 8
  %3 = load ptr, ptr %2, align 8
  %4 = getelementptr inbounds %struct.Vec_Wrd_t_, ptr %3, i32 0, i32 1
  %5 = load i32, ptr %4, align 4
  ret i32 %5
}

; Function Attrs: nounwind uwtable
define i32 @Acb_FindArgMaxUnderMask(ptr noundef %0, ptr noundef %1, ptr noundef %2, i32 noundef %3) #0 {
  %5 = alloca ptr, align 8
  %6 = alloca ptr, align 8
  %7 = alloca ptr, align 8
  %8 = alloca i32, align 4
  %9 = alloca i32, align 4
  %10 = alloca i32, align 4
  %11 = alloca i32, align 4
  %12 = alloca i32, align 4
  %13 = alloca i32, align 4
  %14 = alloca i32, align 4
  %15 = alloca ptr, align 8
  store ptr %0, ptr %5, align 8
  store ptr %1, ptr %6, align 8
  store ptr %2, ptr %7, align 8
  store i32 %3, ptr %8, align 4
  %16 = load ptr, ptr %5, align 8
  %17 = call i32 @Vec_WrdSize(ptr noundef %16)
  %18 = sdiv i32 %17, 256
  store i32 %18, ptr %9, align 4
  %19 = load i32, ptr %8, align 4
  %20 = call i32 @Abc_Bit6WordNum(i32 noundef %19)
  store i32 %20, ptr %10, align 4
  store i32 -1, ptr %12, align 4
  store i32 -1, ptr %14, align 4
  store i32 0, ptr %11, align 4
  br label %21

21:                                               ; preds = %41, %4
  %22 = load i32, ptr %11, align 4
  %23 = load i32, ptr %9, align 4
  %24 = icmp slt i32 %22, %23
  br i1 %24, label %25, label %44

25:                                               ; preds = %21
  %26 = load ptr, ptr %5, align 8
  %27 = load i32, ptr %11, align 4
  %28 = mul nsw i32 256, %27
  %29 = call ptr @Vec_WrdEntryP(ptr noundef %26, i32 noundef %28)
  store ptr %29, ptr %15, align 8
  %30 = load ptr, ptr %6, align 8
  %31 = load ptr, ptr %15, align 8
  %32 = load i32, ptr %10, align 4
  %33 = call i32 @Abc_TtCountOnesVecMask(ptr noundef %30, ptr noundef %31, i32 noundef %32, i32 noundef 0)
  store i32 %33, ptr %13, align 4
  %34 = load i32, ptr %14, align 4
  %35 = load i32, ptr %13, align 4
  %36 = icmp slt i32 %34, %35
  br i1 %36, label %37, label %40

37:                                               ; preds = %25
  %38 = load i32, ptr %13, align 4
  store i32 %38, ptr %14, align 4
  %39 = load i32, ptr %11, align 4
  store i32 %39, ptr %12, align 4
  br label %40

40:                                               ; preds = %37, %25
  br label %41

41:                                               ; preds = %40
  %42 = load i32, ptr %11, align 4
  %43 = add nsw i32 %42, 1
  store i32 %43, ptr %11, align 4
  br label %21, !llvm.loop !95

44:                                               ; preds = %21
  %45 = load i32, ptr %12, align 4
  ret i32 %45
}