; Function Attrs: nofree norecurse nosync nounwind memory(read, inaccessiblemem: none) uwtable
define i32 @Acb_FindArgMaxUnderMask(ptr noundef readonly captures(none) %0, ptr noundef readonly captures(none) %1, ptr noundef readnone captures(none) %2, i32 noundef %3) local_unnamed_addr #14 {
  %5 = getelementptr i8, ptr %0, i64 4
  %.val19 = load i32, ptr %5, align 4
  %6 = sdiv i32 %.val19, 256
  %7 = icmp sgt i32 %.val19, 255
  br i1 %7, label %.lr.ph, label %._crit_edge

.lr.ph:                                           ; preds = %4
  %8 = and i32 %3, 63
  %9 = icmp ne i32 %8, 0
  %10 = zext i1 %9 to i32
  %11 = ashr i32 %3, 6
  %12 = add nsw i32 %11, %10
  %13 = getelementptr i8, ptr %0, i64 8
  %.val = load ptr, ptr %13, align 8
  %14 = icmp sgt i32 %12, 0
  %wide.trip.count.i = zext nneg i32 %12 to i64
  br i1 %14, label %.lr.ph.preheader.i.us.preheader, label %._crit_edge

.lr.ph.preheader.i.us.preheader:                  ; preds = %.lr.ph
  %wide.trip.count = zext nneg i32 %6 to i64
  br label %.lr.ph.preheader.i.us

.lr.ph.preheader.i.us:                            ; preds = %.lr.ph.preheader.i.us.preheader, %Abc_TtCountOnesVecMask.exit.loopexit.us
  %indvars.iv = phi i64 [ 0, %.lr.ph.preheader.i.us.preheader ], [ %indvars.iv.next, %Abc_TtCountOnesVecMask.exit.loopexit.us ]
  %.01421.us = phi i32 [ -1, %.lr.ph.preheader.i.us.preheader ], [ %spec.select18.us, %Abc_TtCountOnesVecMask.exit.loopexit.us ]
  %.01520.us = phi i32 [ -1, %.lr.ph.preheader.i.us.preheader ], [ %spec.select.us, %Abc_TtCountOnesVecMask.exit.loopexit.us ]
  %.idx = shl nsw i64 %indvars.iv, 11
  %15 = getelementptr inbounds nuw i8, ptr %.val, i64 %.idx
  br label %.lr.ph.i.us

.lr.ph.i.us:                                      ; preds = %Abc_TtCountOnes2.exit.i.us, %.lr.ph.preheader.i.us
  %indvars.iv.i.us = phi i64 [ 0, %.lr.ph.preheader.i.us ], [ %indvars.iv.next.i.us, %Abc_TtCountOnes2.exit.i.us ]
  %.220.i.us = phi i32 [ 0, %.lr.ph.preheader.i.us ], [ %41, %Abc_TtCountOnes2.exit.i.us ]
  %16 = getelementptr inbounds nuw i64, ptr %15, i64 %indvars.iv.i.us
  %17 = load i64, ptr %16, align 8
  %18 = getelementptr inbounds nuw i64, ptr %1, i64 %indvars.iv.i.us
  %19 = load i64, ptr %18, align 8
  %20 = and i64 %19, %17
  %.not.i.i.us = icmp eq i64 %20, 0
  br i1 %.not.i.i.us, label %Abc_TtCountOnes2.exit.i.us, label %21

21:                                               ; preds = %.lr.ph.i.us
  %22 = lshr i64 %20, 1
  %23 = and i64 %22, 6148914691236517205
  %24 = sub i64 %20, %23
  %25 = and i64 %24, 3689348814741910323
  %26 = lshr i64 %24, 2
  %27 = and i64 %26, 3689348814741910323
  %28 = add nuw nsw i64 %27, %25
  %29 = lshr i64 %28, 4
  %30 = add nuw nsw i64 %29, %28
  %31 = and i64 %30, 1085102592571150095
  %32 = lshr i64 %31, 8
  %33 = add nuw nsw i64 %32, %31
  %34 = lshr i64 %33, 16
  %35 = add nuw nsw i64 %34, %33
  %36 = lshr i64 %35, 32
  %37 = add nuw nsw i64 %36, %35
  %38 = trunc i64 %37 to i32
  %39 = and i32 %38, 255
  br label %Abc_TtCountOnes2.exit.i.us

Abc_TtCountOnes2.exit.i.us:                       ; preds = %21, %.lr.ph.i.us
  %40 = phi i32 [ %39, %21 ], [ 0, %.lr.ph.i.us ]
  %41 = add nuw nsw i32 %40, %.220.i.us
  %indvars.iv.next.i.us = add nuw nsw i64 %indvars.iv.i.us, 1
  %exitcond.not.i.us = icmp eq i64 %indvars.iv.next.i.us, %wide.trip.count.i
  br i1 %exitcond.not.i.us, label %Abc_TtCountOnesVecMask.exit.loopexit.us, label %.lr.ph.i.us, !llvm.loop !94

Abc_TtCountOnesVecMask.exit.loopexit.us:          ; preds = %Abc_TtCountOnes2.exit.i.us
  %42 = icmp slt i32 %.01421.us, %41
  %43 = trunc nuw nsw i64 %indvars.iv to i32
  %spec.select.us = select i1 %42, i32 %43, i32 %.01520.us
  %spec.select18.us = tail call i32 @llvm.smax.i32(i32 %.01421.us, i32 %41)
  %indvars.iv.next = add nuw nsw i64 %indvars.iv, 1
  %exitcond25.not = icmp eq i64 %indvars.iv.next, %wide.trip.count
  br i1 %exitcond25.not, label %._crit_edge, label %.lr.ph.preheader.i.us, !llvm.loop !95

._crit_edge:                                      ; preds = %Abc_TtCountOnesVecMask.exit.loopexit.us, %.lr.ph, %4
  %.015.lcssa = phi i32 [ -1, %4 ], [ 0, %.lr.ph ], [ %spec.select.us, %Abc_TtCountOnesVecMask.exit.loopexit.us ]
  ret i32 %.015.lcssa
}